target datalayout = "e-m:e-p270:32:32-p271:32:32-p272:64:64-i64:64-i128:128-f80:128-n8:16:32:64-S128"
target triple = "x86_64-pc-linux-gnu"

%struct.uv_handle_s = type { ptr, ptr, i32, ptr, %struct.uv__queue, %union.anon, ptr, i32 }
%struct.uv__queue = type { ptr, ptr }
%union.anon = type { [4 x ptr] }
%struct.uv__io_s = type { ptr, %struct.uv__queue, %struct.uv__queue, i32, i32, i32 }
%struct.uv_stream_s = type { ptr, ptr, i32, ptr, %struct.uv__queue, %union.anon.0, ptr, i32, i64, ptr, ptr, ptr, ptr, %struct.uv__io_s, %struct.uv__queue, %struct.uv__queue, ptr, i32, i32, ptr }
%union.anon.0 = type { [4 x ptr] }
%struct.uv_udp_s = type { ptr, ptr, i32, ptr, %struct.uv__queue, %union.anon.1, ptr, i32, i64, i64, ptr, ptr, %struct.uv__io_s, %struct.uv__queue, %struct.uv__queue }
%union.anon.1 = type { [4 x ptr] }

; Function Attrs: nounwind uwtable
define hidden i32 @uv__socket_sockopt(ptr noundef %0, i32 noundef %1, ptr noundef %2) #0 {
  %4 = alloca i32, align 4
  %5 = alloca ptr, align 8
  %6 = alloca i32, align 4
  %7 = alloca ptr, align 8
  %8 = alloca i32, align 4
  %9 = alloca i32, align 4
  %10 = alloca i32, align 4
  %11 = alloca i32, align 4
  store ptr %0, ptr %5, align 8
  store i32 %1, ptr %6, align 4
  store ptr %2, ptr %7, align 8
  call void @llvm.lifetime.start.p0(i64 4, ptr %8) #11
  call void @llvm.lifetime.start.p0(i64 4, ptr %9) #11
  call void @llvm.lifetime.start.p0(i64 4, ptr %10) #11
  %12 = load ptr, ptr %5, align 8
  %13 = icmp eq ptr %12, null
  br i1 %13, label %17, label %14

14:                                               ; preds = %3
  %15 = load ptr, ptr %7, align 8
  %16 = icmp eq ptr %15, null
  br i1 %16, label %17, label %18

17:                                               ; preds = %14, %3
  store i32 -22, ptr %4, align 4
  store i32 1, ptr %11, align 4
  br label %68

18:                                               ; preds = %14
  %19 = load ptr, ptr %5, align 8
  %20 = getelementptr inbounds nuw %struct.uv_handle_s, ptr %19, i32 0, i32 2
  %21 = load i32, ptr %20, align 8
  %22 = icmp eq i32 %21, 12
  br i1 %22, label %28, label %23

23:                                               ; preds = %18
  %24 = load ptr, ptr %5, align 8
  %25 = getelementptr inbounds nuw %struct.uv_handle_s, ptr %24, i32 0, i32 2
  %26 = load i32, ptr %25, align 8
  %27 = icmp eq i32 %26, 7
  br i1 %27, label %28, label %33

28:                                               ; preds = %23, %18
  %29 = load ptr, ptr %5, align 8
  %30 = getelementptr inbounds nuw %struct.uv_stream_s, ptr %29, i32 0, i32 13
  %31 = getelementptr inbounds nuw %struct.uv__io_s, ptr %30, i32 0, i32 5
  %32 = load i32, ptr %31, align 8
  store i32 %32, ptr %9, align 4
  br label %45

33:                                               ; preds = %23
  %34 = load ptr, ptr %5, align 8
  %35 = getelementptr inbounds nuw %struct.uv_handle_s, ptr %34, i32 0, i32 2
  %36 = load i32, ptr %35, align 8
  %37 = icmp eq i32 %36, 15
  br i1 %37, label %38, label %43

38:                                               ; preds = %33
  %39 = load ptr, ptr %5, align 8
  %40 = getelementptr inbounds nuw %struct.uv_udp_s, ptr %39, i32 0, i32 12
  %41 = getelementptr inbounds nuw %struct.uv__io_s, ptr %40, i32 0, i32 5
  %42 = load i32, ptr %41, align 8
  store i32 %42, ptr %9, align 4
  br label %44

43:                                               ; preds = %33
  store i32 -95, ptr %4, align 4
  store i32 1, ptr %11, align 4
  br label %68

44:                                               ; preds = %38
  br label %45

45:                                               ; preds = %44, %28
  store i32 4, ptr %10, align 4
  %46 = load ptr, ptr %7, align 8
  %47 = load i32, ptr %46, align 4
  %48 = icmp eq i32 %47, 0
  br i1 %48, label %49, label %54

49:                                               ; preds = %45
  %50 = load i32, ptr %9, align 4
  %51 = load i32, ptr %6, align 4
  %52 = load ptr, ptr %7, align 8
  %53 = call i32 @getsockopt(i32 noundef %50, i32 noundef 1, i32 noundef %51, ptr noundef %52, ptr noundef %10) #11
  store i32 %53, ptr %8, align 4
  br label %60

54:                                               ; preds = %45
  %55 = load i32, ptr %9, align 4
  %56 = load i32, ptr %6, align 4
  %57 = load ptr, ptr %7, align 8
  %58 = load i32, ptr %10, align 4
  %59 = call i32 @setsockopt(i32 noundef %55, i32 noundef 1, i32 noundef %56, ptr noundef %57, i32 noundef %58) #11
  store i32 %59, ptr %8, align 4
  br label %60

60:                                               ; preds = %54, %49
  %61 = load i32, ptr %8, align 4
  %62 = icmp slt i32 %61, 0
  br i1 %62, label %63, label %67

63:                                               ; preds = %60
  %64 = call ptr @__errno_location() #12
  %65 = load i32, ptr %64, align 4
  %66 = sub nsw i32 0, %65
  store i32 %66, ptr %4, align 4
  store i32 1, ptr %11, align 4
  br label %68

67:                                               ; preds = %60
  store i32 0, ptr %4, align 4
  store i32 1, ptr %11, align 4
  br label %68

68:                                               ; preds = %67, %63, %43, %17
  call void @llvm.lifetime.end.p0(i64 4, ptr %10) #11
  call void @llvm.lifetime.end.p0(i64 4, ptr %9) #11
  call void @llvm.lifetime.end.p0(i64 4, ptr %8) #11
  %69 = load i32, ptr %4, align 4
  ret i32 %69
}