; Function Attrs: nounwind uwtable
define hidden range(i32 -2147483647, -2147483648) i32 @uv__socket_sockopt(ptr noundef readonly captures(address_is_null) %0, i32 noundef %1, ptr noundef %2) local_unnamed_addr #0 {
  %4 = alloca i32, align 4
  call void @llvm.lifetime.start.p0(i64 4, ptr nonnull %4) #23
  %5 = icmp eq ptr %0, null
  %6 = icmp eq ptr %2, null
  %or.cond = or i1 %5, %6
  br i1 %or.cond, label %25, label %7

7:                                                ; preds = %3
  %8 = getelementptr inbounds nuw i8, ptr %0, i64 16
  %9 = load i32, ptr %8, align 8
  switch i32 %9, label %25 [
    i32 12, label %11
    i32 7, label %11
    i32 15, label %10
  ]

10:                                               ; preds = %7
  br label %11

11:                                               ; preds = %7, %7, %10
  %.sink = phi i64 [ 176, %10 ], [ 184, %7 ], [ 184, %7 ]
  %12 = getelementptr inbounds nuw i8, ptr %0, i64 %.sink
  %.0 = load i32, ptr %12, align 8
  store i32 4, ptr %4, align 4
  %13 = load i32, ptr %2, align 4
  %14 = icmp eq i32 %13, 0
  br i1 %14, label %15, label %17

15:                                               ; preds = %11
  %16 = call i32 @getsockopt(i32 noundef %.0, i32 noundef 1, i32 noundef %1, ptr noundef nonnull %2, ptr noundef nonnull %4) #23
  br label %19

17:                                               ; preds = %11
  %18 = tail call i32 @setsockopt(i32 noundef %.0, i32 noundef 1, i32 noundef %1, ptr noundef nonnull %2, i32 noundef 4) #23
  br label %19

19:                                               ; preds = %17, %15
  %.016 = phi i32 [ %16, %15 ], [ %18, %17 ]
  %20 = icmp slt i32 %.016, 0
  br i1 %20, label %21, label %25

21:                                               ; preds = %19
  %22 = tail call ptr @__errno_location() #24
  %23 = load i32, ptr %22, align 4
  %24 = sub nsw i32 0, %23
  br label %25

25:                                               ; preds = %19, %7, %3, %21
  %.017 = phi i32 [ %24, %21 ], [ -22, %3 ], [ -95, %7 ], [ 0, %19 ]
  call void @llvm.lifetime.end.p0(i64 4, ptr nonnull %4) #23
  ret i32 %.017
}